; Function Attrs: mustprogress uwtable
define void @_ZN7rocksdb9lru_cache13LRUCacheShard22SetStrictCapacityLimitEb(ptr noundef nonnull align 64 dereferenceable(256) %this, i1 noundef zeroext %strict_capacity_limit) local_unnamed_addr #0 align 2 personality ptr @__gxx_personality_v0 {
entry:
  %frombool = zext i1 %strict_capacity_limit to i8
  %mutex_ = getelementptr inbounds i8, ptr %this, i64 208
  tail call void @_ZN7rocksdb4port5Mutex4LockEv(ptr noundef nonnull align 8 dereferenceable(40) %mutex_)
  %strict_capacity_limit_ = getelementptr inbounds i8, ptr %this, i64 32
  store i8 %frombool, ptr %strict_capacity_limit_, align 32
  invoke void @_ZN7rocksdb4port5Mutex6UnlockEv(ptr noundef nonnull align 8 dereferenceable(40) %mutex_)
          to label %_ZNSt10lock_guardIN7rocksdb4port5MutexEED2Ev.exit unwind label %terminate.lpad.i

terminate.lpad.i:                                 ; preds = %entry
  %0 = landingpad { ptr, i32 }
          catch ptr null
  %1 = extractvalue { ptr, i32 } %0, 0
  tail call void @__clang_call_terminate(ptr %1) #27
  unreachable

_ZNSt10lock_guardIN7rocksdb4port5MutexEED2Ev.exit: ; preds = %entry
  ret void
}